target datalayout = "e-m:e-p270:32:32-p271:32:32-p272:64:64-i64:64-i128:128-f80:128-n8:16:32:64-S128"
target triple = "x86_64-pc-linux-gnu"

; Function Attrs: nounwind uwtable
define internal i32 @vcmp(ptr noundef %0, ptr noundef %1, ptr noundef %2) #0 {
  %4 = alloca i32, align 4
  %5 = alloca ptr, align 8
  %6 = alloca ptr, align 8
  %7 = alloca ptr, align 8
  %8 = alloca ptr, align 8
  %9 = alloca ptr, align 8
  %10 = alloca ptr, align 8
  %11 = alloca double, align 8
  %12 = alloca double, align 8
  %13 = alloca i32, align 4
  store ptr %0, ptr %5, align 8, !tbaa !25
  store ptr %1, ptr %6, align 8, !tbaa !25
  store ptr %2, ptr %7, align 8, !tbaa !25
  call void @llvm.lifetime.start.p0(i64 8, ptr %8) #12
  %14 = load ptr, ptr %5, align 8, !tbaa !25
  store ptr %14, ptr %8, align 8, !tbaa !10
  call void @llvm.lifetime.start.p0(i64 8, ptr %9) #12
  %15 = load ptr, ptr %6, align 8, !tbaa !25
  store ptr %15, ptr %9, align 8, !tbaa !10
  call void @llvm.lifetime.start.p0(i64 8, ptr %10) #12
  %16 = load ptr, ptr %7, align 8, !tbaa !25
  store ptr %16, ptr %10, align 8, !tbaa !3
  call void @llvm.lifetime.start.p0(i64 8, ptr %11) #12
  %17 = load ptr, ptr %10, align 8, !tbaa !3
  %18 = load ptr, ptr %8, align 8, !tbaa !10
  %19 = load i32, ptr %18, align 4, !tbaa !8
  %20 = sext i32 %19 to i64
  %21 = getelementptr inbounds double, ptr %17, i64 %20
  %22 = load double, ptr %21, align 8, !tbaa !22
  store double %22, ptr %11, align 8, !tbaa !22
  call void @llvm.lifetime.start.p0(i64 8, ptr %12) #12
  %23 = load ptr, ptr %10, align 8, !tbaa !3
  %24 = load ptr, ptr %9, align 8, !tbaa !10
  %25 = load i32, ptr %24, align 4, !tbaa !8
  %26 = sext i32 %25 to i64
  %27 = getelementptr inbounds double, ptr %23, i64 %26
  %28 = load double, ptr %27, align 8, !tbaa !22
  store double %28, ptr %12, align 8, !tbaa !22
  %29 = load double, ptr %11, align 8, !tbaa !22
  %30 = load double, ptr %12, align 8, !tbaa !22
  %31 = fcmp olt double %29, %30
  br i1 %31, label %32, label %33

32:                                               ; preds = %3
  store i32 -1, ptr %4, align 4
  store i32 1, ptr %13, align 4
  br label %39

33:                                               ; preds = %3
  %34 = load double, ptr %11, align 8, !tbaa !22
  %35 = load double, ptr %12, align 8, !tbaa !22
  %36 = fcmp ogt double %34, %35
  br i1 %36, label %37, label %38

37:                                               ; preds = %33
  store i32 1, ptr %4, align 4
  store i32 1, ptr %13, align 4
  br label %39

38:                                               ; preds = %33
  store i32 0, ptr %4, align 4
  store i32 1, ptr %13, align 4
  br label %39

39:                                               ; preds = %38, %37, %32
  call void @llvm.lifetime.end.p0(i64 8, ptr %12) #12
  call void @llvm.lifetime.end.p0(i64 8, ptr %11) #12
  call void @llvm.lifetime.end.p0(i64 8, ptr %10) #12
  call void @llvm.lifetime.end.p0(i64 8, ptr %9) #12
  call void @llvm.lifetime.end.p0(i64 8, ptr %8) #12
  %40 = load i32, ptr %4, align 4
  ret i32 %40
}